; Function Attrs: mustprogress nofree norecurse nosync nounwind memory(readwrite, inaccessiblemem: none) uwtable
define noundef zeroext i1 @_ZN7testing8internal11MatchMatrix9NextGraphEv(ptr noundef nonnull readonly align 8 captures(none) dereferenceable(40) %0) local_unnamed_addr #13 align 2 {
  %2 = load i64, ptr %0, align 8, !tbaa !110
  %.not2026.not = icmp eq i64 %2, 0
  br i1 %.not2026.not, label %.thread, label %.preheader.lr.ph

.preheader.lr.ph:                                 ; preds = %1
  %3 = getelementptr inbounds nuw i8, ptr %0, i64 8
  %4 = getelementptr inbounds nuw i8, ptr %0, i64 16
  %5 = load i64, ptr %3, align 8, !tbaa !119
  %.not29 = icmp eq i64 %5, 0
  br i1 %.not29, label %.thread, label %.preheader

.preheader:                                       ; preds = %.preheader.lr.ph, %._crit_edge
  %6 = phi i64 [ %17, %._crit_edge ], [ %2, %.preheader.lr.ph ]
  %7 = phi i64 [ %18, %._crit_edge ], [ %5, %.preheader.lr.ph ]
  %.01827 = phi i64 [ %19, %._crit_edge ], [ 0, %.preheader.lr.ph ]
  %.not24.not = icmp eq i64 %7, 0
  br i1 %.not24.not, label %._crit_edge, label %.lr.ph

8:                                                ; preds = %.lr.ph
  %9 = add nuw i64 %.01425, 1
  %10 = load i64, ptr %3, align 8, !tbaa !119
  %.not = icmp ult i64 %9, %10
  br i1 %.not, label %.lr.ph, label %._crit_edge.loopexit, !llvm.loop !134

.lr.ph:                                           ; preds = %.preheader, %8
  %11 = phi i64 [ %10, %8 ], [ %7, %.preheader ]
  %.01425 = phi i64 [ %9, %8 ], [ 0, %.preheader ]
  %12 = mul i64 %11, %.01827
  %13 = load ptr, ptr %4, align 8, !tbaa !121
  %14 = getelementptr i8, ptr %13, i64 %12
  %15 = getelementptr i8, ptr %14, i64 %.01425
  %16 = load i8, ptr %15, align 1, !tbaa !12
  %.not.not = icmp eq i8 %16, 0
  %. = zext i1 %.not.not to i8
  store i8 %., ptr %15, align 1, !tbaa !12
  br i1 %.not.not, label %.thread, label %8

._crit_edge.loopexit:                             ; preds = %8
  %.pre = load i64, ptr %0, align 8, !tbaa !110
  br label %._crit_edge

._crit_edge:                                      ; preds = %._crit_edge.loopexit, %.preheader
  %17 = phi i64 [ %.pre, %._crit_edge.loopexit ], [ %6, %.preheader ]
  %18 = phi i64 [ %10, %._crit_edge.loopexit ], [ 0, %.preheader ]
  %19 = add nuw i64 %.01827, 1
  %.not20 = icmp ult i64 %19, %17
  br i1 %.not20, label %.preheader, label %.thread, !llvm.loop !135

.thread:                                          ; preds = %._crit_edge, %.lr.ph, %.preheader.lr.ph, %1
  %.not2023 = phi i1 [ false, %1 ], [ false, %.preheader.lr.ph ], [ true, %.lr.ph ], [ false, %._crit_edge ]
  ret i1 %.not2023
}